; Function Attrs: mustprogress uwtable
define noundef double @_ZNK8QuantLib4Bond5yieldENS0_5PriceERKNS_10DayCounterENS_11CompoundingENS_9FrequencyENS_4DateEdmd(ptr noundef nonnull align 8 dereferenceable(248) %this, double %price.coerce0, i32 %price.coerce1, ptr noundef nonnull align 8 dereferenceable(16) %dc, i32 noundef %comp, i32 noundef %freq, i64 %settlement.coerce, double noundef %accuracy, i64 noundef %maxEvaluations, double noundef %guess) local_unnamed_addr #9 align 2 {
entry:
  %vtable = load ptr, ptr %this, align 8, !tbaa !33
  %vfn = getelementptr inbounds i8, ptr %vtable, i64 80
  %0 = load ptr, ptr %vfn, align 8
  %call = tail call noundef double %0(ptr noundef nonnull align 8 dereferenceable(248) %this, i64 %settlement.coerce)
  %cmp = fcmp oeq double %call, 0.000000e+00
  br i1 %cmp, label %cleanup, label %if.end

if.end:                                           ; preds = %entry
  %call6 = tail call noundef double @_ZN8QuantLib13BondFunctions5yieldERKNS_4BondENS1_5PriceERKNS_10DayCounterENS_11CompoundingENS_9FrequencyENS_4DateEdmd(ptr noundef nonnull align 8 dereferenceable(248) %this, double %price.coerce0, i32 %price.coerce1, ptr noundef nonnull align 8 dereferenceable(16) %dc, i32 noundef %comp, i32 noundef %freq, i64 %settlement.coerce, double noundef %accuracy, i64 noundef %maxEvaluations, double noundef %guess)
  br label %cleanup

cleanup:                                          ; preds = %entry, %if.end
  %retval.0 = phi double [ %call6, %if.end ], [ 0.000000e+00, %entry ]
  ret double %retval.0
}